target datalayout = "e-m:e-p270:32:32-p271:32:32-p272:64:64-i64:64-i128:128-f80:128-n8:16:32:64-S128"
target triple = "x86_64-pc-linux-gnu"

%"class.llvm::pdb::NativeFunctionSymbol" = type <{ %"class.llvm::pdb::NativeRawSymbol", %"class.llvm::codeview::ProcSym", i32, [4 x i8] }>
%"class.llvm::pdb::NativeRawSymbol" = type { %"class.llvm::pdb::IPDBRawSymbol", ptr, i32, i32 }
%"class.llvm::pdb::IPDBRawSymbol" = type { ptr }
%"class.llvm::codeview::ProcSym" = type <{ %"class.llvm::codeview::SymbolRecord", [2 x i8], i32, i32, i32, i32, i32, i32, %"class.llvm::codeview::TypeIndex", i32, i16, i8, i8, %"class.llvm::StringRef", i32, [4 x i8] }>
%"class.llvm::codeview::SymbolRecord" = type { i16 }
%"class.llvm::codeview::TypeIndex" = type { %"struct.llvm::support::detail::packed_endian_specific_integral" }
%"struct.llvm::support::detail::packed_endian_specific_integral" = type { %struct.anon }
%struct.anon = type { [4 x i8] }
%"class.llvm::StringRef" = type { ptr, i64 }

; Function Attrs: mustprogress nounwind uwtable
define dso_local noundef i32 @_ZNK4llvm3pdb20NativeFunctionSymbol25getRelativeVirtualAddressEv(ptr noundef nonnull align 8 dereferenceable(92) %0) unnamed_addr #0 align 2 {
  %2 = alloca ptr, align 8
  store ptr %0, ptr %2, align 8
  %3 = load ptr, ptr %2, align 8
  %4 = getelementptr inbounds nuw %"class.llvm::pdb::NativeRawSymbol", ptr %3, i32 0, i32 1
  %5 = load ptr, ptr %4, align 8
  %6 = getelementptr inbounds nuw %"class.llvm::pdb::NativeFunctionSymbol", ptr %3, i32 0, i32 1
  %7 = getelementptr inbounds nuw %"class.llvm::codeview::ProcSym", ptr %6, i32 0, i32 10
  %8 = load i16, ptr %7, align 4
  %9 = zext i16 %8 to i32
  %10 = getelementptr inbounds nuw %"class.llvm::pdb::NativeFunctionSymbol", ptr %3, i32 0, i32 1
  %11 = getelementptr inbounds nuw %"class.llvm::codeview::ProcSym", ptr %10, i32 0, i32 9
  %12 = load i32, ptr %11, align 8
  %13 = call noundef i32 @_ZNK4llvm3pdb13NativeSession20getRVAFromSectOffsetEjj(ptr noundef nonnull align 8 dereferenceable(584) %5, i32 noundef %9, i32 noundef %12)
  ret i32 %13
}