; Function Attrs: mustprogress nounwind uwtable
define dso_local noundef i32 @_ZNK4llvm3pdb20NativeFunctionSymbol25getRelativeVirtualAddressEv(ptr nocapture noundef nonnull readonly align 8 dereferenceable(92) %0) unnamed_addr #0 align 2 {
  %2 = getelementptr inbounds nuw i8, ptr %0, i64 8
  %3 = load ptr, ptr %2, align 8
  %4 = getelementptr inbounds i8, ptr %0, i64 60
  %5 = load i16, ptr %4, align 4
  %6 = zext i16 %5 to i32
  %7 = getelementptr inbounds i8, ptr %0, i64 56
  %8 = load i32, ptr %7, align 8
  %9 = tail call noundef i32 @_ZNK4llvm3pdb13NativeSession20getRVAFromSectOffsetEjj(ptr noundef nonnull align 8 dereferenceable(584) %3, i32 noundef %6, i32 noundef %8) #14
  ret i32 %9
}